; Function Attrs: nounwind sspstrong uwtable
define internal i64 @rb_file_s_dirname(i32 noundef %0, ptr noundef readonly captures(none) %1, i64 %2) #0 {
  %4 = add i32 %0, -3
  %or.cond = icmp ult i32 %4, -2
  br i1 %or.cond, label %5, label %rb_check_arity.exit

5:                                                ; preds = %3
  tail call void @rb_error_arity(i32 noundef %0, i32 noundef 1, i32 noundef 2) #24
  unreachable

rb_check_arity.exit:                              ; preds = %3
  %6 = icmp samesign ugt i32 %0, 1
  br i1 %6, label %7, label %16

7:                                                ; preds = %rb_check_arity.exit
  %8 = getelementptr i8, ptr %1, i64 8
  %9 = load i64, ptr %8, align 8, !tbaa !12
  %10 = and i64 %9, 1
  %.not.i = icmp eq i64 %10, 0
  br i1 %.not.i, label %13, label %11

11:                                               ; preds = %7
  %12 = tail call i64 @rb_fix2int(i64 noundef %9) #22
  br label %rb_num2int_inline.exit

13:                                               ; preds = %7
  %14 = tail call i64 @rb_num2int(i64 noundef %9) #22
  br label %rb_num2int_inline.exit

rb_num2int_inline.exit:                           ; preds = %11, %13
  %.0.i = phi i64 [ %12, %11 ], [ %14, %13 ]
  %15 = trunc i64 %.0.i to i32
  br label %16

16:                                               ; preds = %rb_num2int_inline.exit, %rb_check_arity.exit
  %.0 = phi i32 [ %15, %rb_num2int_inline.exit ], [ 1, %rb_check_arity.exit ]
  %17 = load i64, ptr %1, align 8, !tbaa !12
  %18 = tail call fastcc i64 @rb_file_dirname_n(i64 noundef %17, i32 noundef %.0)
  ret i64 %18
}